target datalayout = "e-m:e-p270:32:32-p271:32:32-p272:64:64-i64:64-i128:128-f80:128-n8:16:32:64-S128"
target triple = "x86_64-pc-linux-gnu"

%struct.SDL_EventWatchList = type { ptr, %struct.SDL_EventWatcher, ptr, i32, i8, i8 }
%struct.SDL_EventWatcher = type { ptr, ptr, i8 }

; Function Attrs: nounwind uwtable
define hidden zeroext i1 @SDL_InitEventWatchList(ptr noundef %0) #0 {
  %2 = alloca i1, align 1
  %3 = alloca ptr, align 8
  store ptr %0, ptr %3, align 8
  %4 = load ptr, ptr %3, align 8
  %5 = getelementptr inbounds nuw %struct.SDL_EventWatchList, ptr %4, i32 0, i32 0
  %6 = load ptr, ptr %5, align 8
  %7 = icmp eq ptr %6, null
  br i1 %7, label %8, label %18

8:                                                ; preds = %1
  %9 = call ptr @SDL_CreateMutex_REAL()
  %10 = load ptr, ptr %3, align 8
  %11 = getelementptr inbounds nuw %struct.SDL_EventWatchList, ptr %10, i32 0, i32 0
  store ptr %9, ptr %11, align 8
  %12 = load ptr, ptr %3, align 8
  %13 = getelementptr inbounds nuw %struct.SDL_EventWatchList, ptr %12, i32 0, i32 0
  %14 = load ptr, ptr %13, align 8
  %15 = icmp eq ptr %14, null
  br i1 %15, label %16, label %17

16:                                               ; preds = %8
  store i1 false, ptr %2, align 1
  br label %19

17:                                               ; preds = %8
  br label %18

18:                                               ; preds = %17, %1
  store i1 true, ptr %2, align 1
  br label %19

19:                                               ; preds = %18, %16
  %20 = load i1, ptr %2, align 1
  ret i1 %20
}