; Function Attrs: nounwind uwtable
define hidden noundef zeroext i1 @SDL_InitEventWatchList(ptr noundef captures(none) %0) local_unnamed_addr #0 {
  %2 = load ptr, ptr %0, align 8
  %3 = icmp eq ptr %2, null
  br i1 %3, label %4, label %7

4:                                                ; preds = %1
  %5 = tail call ptr @SDL_CreateMutex_REAL() #5
  store ptr %5, ptr %0, align 8
  %6 = icmp eq ptr %5, null
  br i1 %6, label %8, label %7

7:                                                ; preds = %4, %1
  br label %8

8:                                                ; preds = %4, %7
  %.0 = phi i1 [ true, %7 ], [ false, %4 ]
  ret i1 %.0
}